; Function Attrs: nounwind uwtable
define void @Abc_FrameImportPtr(ptr noundef %0) local_unnamed_addr #0 {
  %2 = tail call ptr (...) @Abc_FrameGetGlobalFrame() #14
  %3 = icmp eq ptr %2, null
  br i1 %3, label %4, label %5

4:                                                ; preds = %1
  %puts5 = tail call i32 @puts(ptr nonnull dereferenceable(1) @str.4)
  br label %14

5:                                                ; preds = %1
  %6 = tail call ptr @Bac_PtrTransformToCba(ptr noundef %0) #14
  %7 = icmp eq ptr %6, null
  br i1 %7, label %.split4, label %.split

.split:                                           ; preds = %5
  %8 = tail call ptr (...) @Abc_FrameGetGlobalFrame() #14
  %9 = getelementptr i8, ptr %8, i64 528
  %.val.i = load ptr, ptr %9, align 8, !tbaa !3
  %.not.i.i = icmp eq ptr %.val.i, null
  br i1 %.not.i.i, label %Bac_AbcUpdateMan.exit, label %10

10:                                               ; preds = %.split
  tail call fastcc void @Bac_ManFree(ptr noundef nonnull %.val.i)
  br label %Bac_AbcUpdateMan.exit

Bac_AbcUpdateMan.exit:                            ; preds = %.split, %10
  store ptr %6, ptr %9, align 8, !tbaa !3
  br label %14

.split4:                                          ; preds = %5
  %puts = tail call i32 @puts(ptr nonnull dereferenceable(1) @str)
  %11 = tail call ptr (...) @Abc_FrameGetGlobalFrame() #14
  %12 = getelementptr i8, ptr %11, i64 528
  %.val.i6 = load ptr, ptr %12, align 8, !tbaa !3
  %.not.i.i7 = icmp eq ptr %.val.i6, null
  br i1 %.not.i.i7, label %Bac_AbcUpdateMan.exit8, label %13

13:                                               ; preds = %.split4
  tail call fastcc void @Bac_ManFree(ptr noundef nonnull %.val.i6)
  br label %Bac_AbcUpdateMan.exit8

Bac_AbcUpdateMan.exit8:                           ; preds = %.split4, %13
  store ptr null, ptr %12, align 8, !tbaa !3
  br label %14

14:                                               ; preds = %Bac_AbcUpdateMan.exit8, %Bac_AbcUpdateMan.exit, %4
  ret void
}